target datalayout = "e-m:e-p270:32:32-p271:32:32-p272:64:64-i64:64-i128:128-f80:128-n8:16:32:64-S128"
target triple = "x86_64-pc-linux-gnu"

%struct.cli_pcre_data = type { ptr, ptr, i32, ptr, i32 }

@.str.1 = private unnamed_addr constant [50 x i8] c"cli_pcre_compile: NULL pd or NULL pd->expression\0A\00", align 1
@.str.2 = private unnamed_addr constant [65 x i8] c"cli_pcre_compile: Unable to allocate memory for general context\0A\00", align 1
@.str.3 = private unnamed_addr constant [65 x i8] c"cli_pcre_compile: Unable to allocate memory for compile context\0A\00", align 1
@.str.4 = private unnamed_addr constant [63 x i8] c"cli_pcre_compile: PCRE2 compilation failed at offset %llu: %s\0A\00", align 1
@.str.5 = private unnamed_addr constant [63 x i8] c"cli_pcre_compile: Unable to allocate memory for match context\0A\00", align 1

; Function Attrs: nounwind uwtable
define i32 @cli_pcre_compile(ptr noundef %0, i64 noundef %1, i64 noundef %2, i32 noundef %3, i32 noundef %4) #0 {
  %6 = alloca i32, align 4
  %7 = alloca ptr, align 8
  %8 = alloca i64, align 8
  %9 = alloca i64, align 8
  %10 = alloca i32, align 4
  %11 = alloca i32, align 4
  %12 = alloca i32, align 4
  %13 = alloca i64, align 8
  %14 = alloca ptr, align 8
  %15 = alloca ptr, align 8
  %16 = alloca [256 x i8], align 16
  store ptr %0, ptr %7, align 8
  store i64 %1, ptr %8, align 8
  store i64 %2, ptr %9, align 8
  store i32 %3, ptr %10, align 4
  store i32 %4, ptr %11, align 4
  %17 = load ptr, ptr %7, align 8
  %18 = icmp ne ptr %17, null
  br i1 %18, label %19, label %24

19:                                               ; preds = %5
  %20 = load ptr, ptr %7, align 8
  %21 = getelementptr inbounds %struct.cli_pcre_data, ptr %20, i32 0, i32 3
  %22 = load ptr, ptr %21, align 8
  %23 = icmp ne ptr %22, null
  br i1 %23, label %25, label %24

24:                                               ; preds = %19, %5
  call void (ptr, ...) @cli_errmsg(ptr noundef @.str.1)
  store i32 2, ptr %6, align 4
  br label %100

25:                                               ; preds = %19
  %26 = call ptr @pcre2_general_context_create_8(ptr noundef @cli_pcre_malloc, ptr noundef @cli_pcre_free, ptr noundef null)
  store ptr %26, ptr %14, align 8
  %27 = load ptr, ptr %14, align 8
  %28 = icmp ne ptr %27, null
  br i1 %28, label %30, label %29

29:                                               ; preds = %25
  call void (ptr, ...) @cli_errmsg(ptr noundef @.str.2)
  store i32 20, ptr %6, align 4
  br label %100

30:                                               ; preds = %25
  %31 = load ptr, ptr %14, align 8
  %32 = call ptr @pcre2_compile_context_create_8(ptr noundef %31)
  store ptr %32, ptr %15, align 8
  %33 = load ptr, ptr %15, align 8
  %34 = icmp ne ptr %33, null
  br i1 %34, label %37, label %35

35:                                               ; preds = %30
  call void (ptr, ...) @cli_errmsg(ptr noundef @.str.3)
  %36 = load ptr, ptr %14, align 8
  call void @pcre2_general_context_free_8(ptr noundef %36)
  store i32 20, ptr %6, align 4
  br label %100

37:                                               ; preds = %30
  %38 = load i32, ptr %11, align 4
  %39 = icmp ne i32 %38, 0
  br i1 %39, label %40, label %49

40:                                               ; preds = %37
  %41 = load ptr, ptr %7, align 8
  %42 = getelementptr inbounds %struct.cli_pcre_data, ptr %41, i32 0, i32 3
  %43 = load ptr, ptr %42, align 8
  %44 = load i32, ptr %10, align 4
  %45 = load ptr, ptr %15, align 8
  %46 = call ptr @pcre2_compile_8(ptr noundef %43, i64 noundef -1, i32 noundef %44, ptr noundef %12, ptr noundef %13, ptr noundef %45)
  %47 = load ptr, ptr %7, align 8
  %48 = getelementptr inbounds %struct.cli_pcre_data, ptr %47, i32 0, i32 0
  store ptr %46, ptr %48, align 8
  br label %60

49:                                               ; preds = %37
  %50 = load ptr, ptr %7, align 8
  %51 = getelementptr inbounds %struct.cli_pcre_data, ptr %50, i32 0, i32 3
  %52 = load ptr, ptr %51, align 8
  %53 = load ptr, ptr %7, align 8
  %54 = getelementptr inbounds %struct.cli_pcre_data, ptr %53, i32 0, i32 2
  %55 = load i32, ptr %54, align 8
  %56 = load ptr, ptr %15, align 8
  %57 = call ptr @pcre2_compile_8(ptr noundef %52, i64 noundef -1, i32 noundef %55, ptr noundef %12, ptr noundef %13, ptr noundef %56)
  %58 = load ptr, ptr %7, align 8
  %59 = getelementptr inbounds %struct.cli_pcre_data, ptr %58, i32 0, i32 0
  store ptr %57, ptr %59, align 8
  br label %60

60:                                               ; preds = %49, %40
  %61 = load ptr, ptr %7, align 8
  %62 = getelementptr inbounds %struct.cli_pcre_data, ptr %61, i32 0, i32 0
  %63 = load ptr, ptr %62, align 8
  %64 = icmp eq ptr %63, null
  br i1 %64, label %65, label %73

65:                                               ; preds = %60
  %66 = load i32, ptr %12, align 4
  %67 = getelementptr inbounds [256 x i8], ptr %16, i64 0, i64 0
  %68 = call i32 @pcre2_get_error_message_8(i32 noundef %66, ptr noundef %67, i64 noundef 256)
  %69 = load i64, ptr %13, align 8
  %70 = getelementptr inbounds [256 x i8], ptr %16, i64 0, i64 0
  call void (ptr, ...) @cli_errmsg(ptr noundef @.str.4, i64 noundef %69, ptr noundef %70)
  %71 = load ptr, ptr %15, align 8
  call void @pcre2_compile_context_free_8(ptr noundef %71)
  %72 = load ptr, ptr %14, align 8
  call void @pcre2_general_context_free_8(ptr noundef %72)
  store i32 4, ptr %6, align 4
  br label %100

73:                                               ; preds = %60
  %74 = load ptr, ptr %14, align 8
  %75 = call ptr @pcre2_match_context_create_8(ptr noundef %74)
  %76 = load ptr, ptr %7, align 8
  %77 = getelementptr inbounds %struct.cli_pcre_data, ptr %76, i32 0, i32 1
  store ptr %75, ptr %77, align 8
  %78 = load ptr, ptr %7, align 8
  %79 = getelementptr inbounds %struct.cli_pcre_data, ptr %78, i32 0, i32 1
  %80 = load ptr, ptr %79, align 8
  %81 = icmp ne ptr %80, null
  br i1 %81, label %85, label %82

82:                                               ; preds = %73
  call void (ptr, ...) @cli_errmsg(ptr noundef @.str.5)
  %83 = load ptr, ptr %15, align 8
  call void @pcre2_compile_context_free_8(ptr noundef %83)
  %84 = load ptr, ptr %14, align 8
  call void @pcre2_general_context_free_8(ptr noundef %84)
  store i32 20, ptr %6, align 4
  br label %100

85:                                               ; preds = %73
  %86 = load ptr, ptr %7, align 8
  %87 = getelementptr inbounds %struct.cli_pcre_data, ptr %86, i32 0, i32 1
  %88 = load ptr, ptr %87, align 8
  %89 = load i64, ptr %8, align 8
  %90 = trunc i64 %89 to i32
  %91 = call i32 @pcre2_set_match_limit_8(ptr noundef %88, i32 noundef %90)
  %92 = load ptr, ptr %7, align 8
  %93 = getelementptr inbounds %struct.cli_pcre_data, ptr %92, i32 0, i32 1
  %94 = load ptr, ptr %93, align 8
  %95 = load i64, ptr %9, align 8
  %96 = trunc i64 %95 to i32
  %97 = call i32 @pcre2_set_recursion_limit_8(ptr noundef %94, i32 noundef %96)
  %98 = load ptr, ptr %15, align 8
  call void @pcre2_compile_context_free_8(ptr noundef %98)
  %99 = load ptr, ptr %14, align 8
  call void @pcre2_general_context_free_8(ptr noundef %99)
  store i32 0, ptr %6, align 4
  br label %100

100:                                              ; preds = %85, %82, %65, %35, %29, %24
  %101 = load i32, ptr %6, align 4
  ret i32 %101
}