; Function Attrs: nounwind uwtable
define noundef i32 @cli_pcre_compile(ptr noundef %0, i64 noundef %1, i64 noundef %2, i32 noundef %3, i32 noundef %4) local_unnamed_addr #0 {
  %6 = alloca i32, align 4
  %7 = alloca i64, align 8
  %8 = alloca [256 x i8], align 16
  %.not = icmp eq ptr %0, null
  br i1 %.not, label %12, label %9

9:                                                ; preds = %5
  %10 = getelementptr inbounds i8, ptr %0, i64 24
  %11 = load ptr, ptr %10, align 8
  %.not33 = icmp eq ptr %11, null
  br i1 %.not33, label %12, label %13

12:                                               ; preds = %9, %5
  tail call void (ptr, ...) @cli_errmsg(ptr noundef nonnull @.str.1) #6
  br label %41

13:                                               ; preds = %9
  %14 = tail call ptr @pcre2_general_context_create_8(ptr noundef nonnull @cli_pcre_malloc, ptr noundef nonnull @cli_pcre_free, ptr noundef null) #6
  %.not34 = icmp eq ptr %14, null
  br i1 %.not34, label %15, label %16

15:                                               ; preds = %13
  tail call void (ptr, ...) @cli_errmsg(ptr noundef nonnull @.str.2) #6
  br label %41

16:                                               ; preds = %13
  %17 = tail call ptr @pcre2_compile_context_create_8(ptr noundef nonnull %14) #6
  %.not35 = icmp eq ptr %17, null
  br i1 %.not35, label %18, label %19

18:                                               ; preds = %16
  tail call void (ptr, ...) @cli_errmsg(ptr noundef nonnull @.str.3) #6
  tail call void @pcre2_general_context_free_8(ptr noundef nonnull %14) #6
  br label %41

19:                                               ; preds = %16
  %.not36 = icmp eq i32 %4, 0
  %20 = load ptr, ptr %10, align 8
  br i1 %.not36, label %21, label %24

21:                                               ; preds = %19
  %22 = getelementptr inbounds i8, ptr %0, i64 16
  %23 = load i32, ptr %22, align 8
  br label %24

24:                                               ; preds = %19, %21
  %.sink = phi i32 [ %23, %21 ], [ %3, %19 ]
  %25 = call ptr @pcre2_compile_8(ptr noundef %20, i64 noundef -1, i32 noundef %.sink, ptr noundef nonnull %6, ptr noundef nonnull %7, ptr noundef nonnull %17) #6
  store ptr %25, ptr %0, align 8
  %26 = icmp eq ptr %25, null
  br i1 %26, label %27, label %31

27:                                               ; preds = %24
  %28 = load i32, ptr %6, align 4
  %29 = call i32 @pcre2_get_error_message_8(i32 noundef %28, ptr noundef nonnull %8, i64 noundef 256) #6
  %30 = load i64, ptr %7, align 8
  call void (ptr, ...) @cli_errmsg(ptr noundef nonnull @.str.4, i64 noundef %30, ptr noundef nonnull %8) #6
  call void @pcre2_compile_context_free_8(ptr noundef nonnull %17) #6
  call void @pcre2_general_context_free_8(ptr noundef nonnull %14) #6
  br label %41

31:                                               ; preds = %24
  %32 = call ptr @pcre2_match_context_create_8(ptr noundef nonnull %14) #6
  %33 = getelementptr inbounds i8, ptr %0, i64 8
  store ptr %32, ptr %33, align 8
  %.not37 = icmp eq ptr %32, null
  br i1 %.not37, label %34, label %35

34:                                               ; preds = %31
  call void (ptr, ...) @cli_errmsg(ptr noundef nonnull @.str.5) #6
  call void @pcre2_compile_context_free_8(ptr noundef nonnull %17) #6
  call void @pcre2_general_context_free_8(ptr noundef nonnull %14) #6
  br label %41

35:                                               ; preds = %31
  %36 = trunc i64 %1 to i32
  %37 = call i32 @pcre2_set_match_limit_8(ptr noundef nonnull %32, i32 noundef %36) #6
  %38 = load ptr, ptr %33, align 8
  %39 = trunc i64 %2 to i32
  %40 = call i32 @pcre2_set_recursion_limit_8(ptr noundef %38, i32 noundef %39) #6
  call void @pcre2_compile_context_free_8(ptr noundef nonnull %17) #6
  call void @pcre2_general_context_free_8(ptr noundef nonnull %14) #6
  br label %41

41:                                               ; preds = %35, %34, %27, %18, %15, %12
  %.0 = phi i32 [ 4, %27 ], [ 0, %35 ], [ 20, %34 ], [ 20, %18 ], [ 20, %15 ], [ 2, %12 ]
  ret i32 %.0
}